target datalayout = "e-m:e-p270:32:32-p271:32:32-p272:64:64-i64:64-i128:128-f80:128-n8:16:32:64-S128"
target triple = "x86_64-pc-linux-gnu"

%struct.Rtm_Man_t_ = type { ptr, ptr, ptr, ptr, ptr, i32, i32 }
%struct.Vec_Ptr_t_ = type { i32, i32, ptr }
%struct.Aig_Man_t_ = type { ptr, ptr, ptr, ptr, ptr, ptr, ptr, %struct.Aig_Obj_t_, i32, i32, i32, i32, i32, i32, [7 x i32], i32, ptr, i32, ptr, i32, ptr, i32, i32, i32, ptr, i32, i32, i32, i32, i32, ptr, ptr, i32, ptr, ptr, i32, ptr, ptr, i32, i32, i32, ptr, ptr, ptr, ptr, ptr, ptr, ptr, ptr, ptr, ptr, ptr, ptr, ptr, ptr, i32, ptr, ptr, ptr, ptr, i32, i64, i64, i64, ptr, ptr }
%struct.Aig_Obj_t_ = type { %union.anon, ptr, ptr, i64, i32, i32, %union.anon.0 }
%union.anon = type { ptr }
%union.anon.0 = type { ptr }
%struct.Rtm_Obj_t_ = type { ptr, i32, i32, i32, i32, [0 x ptr] }

; Function Attrs: inlinehint nounwind uwtable
define internal i32 @Rtm_InitGetTwo(ptr noundef %0, i32 noundef %1) #5 {
  %3 = alloca ptr, align 8
  %4 = alloca i32, align 4
  store ptr %0, ptr %3, align 8, !tbaa !82
  store i32 %1, ptr %4, align 4, !tbaa !21
  %5 = load ptr, ptr %3, align 8, !tbaa !82
  %6 = load i32, ptr %4, align 4, !tbaa !21
  %7 = ashr i32 %6, 4
  %8 = sext i32 %7 to i64
  %9 = getelementptr inbounds i32, ptr %5, i64 %8
  %10 = load i32, ptr %9, align 4, !tbaa !21
  %11 = load i32, ptr %4, align 4, !tbaa !21
  %12 = and i32 %11, 15
  %13 = shl i32 %12, 1
  %14 = lshr i32 %10, %13
  %15 = and i32 %14, 3
  ret i32 %15
}

; Function Attrs: inlinehint nounwind uwtable
define internal ptr @Vec_PtrEntry(ptr noundef %0, i32 noundef %1) #5 {
  %3 = alloca ptr, align 8
  %4 = alloca i32, align 4
  store ptr %0, ptr %3, align 8, !tbaa !22
  store i32 %1, ptr %4, align 4, !tbaa !21
  %5 = load ptr, ptr %3, align 8, !tbaa !22
  %6 = getelementptr inbounds nuw %struct.Vec_Ptr_t_, ptr %5, i32 0, i32 2
  %7 = load ptr, ptr %6, align 8, !tbaa !26
  %8 = load i32, ptr %4, align 4, !tbaa !21
  %9 = sext i32 %8 to i64
  %10 = getelementptr inbounds ptr, ptr %7, i64 %9
  %11 = load ptr, ptr %10, align 8, !tbaa !45
  ret ptr %11
}

; Function Attrs: inlinehint nounwind uwtable
define internal i32 @Rtm_ObjGetFirst1(ptr noundef %0) #5 {
  %2 = alloca ptr, align 8
  store ptr %0, ptr %2, align 8, !tbaa !8
  %3 = load ptr, ptr %2, align 8, !tbaa !8
  %4 = load i32, ptr %3, align 8
  %5 = lshr i32 %4, 12
  %6 = zext i32 %5 to i64
  %7 = trunc i64 %6 to i32
  %8 = and i32 %7, 3
  ret i32 %8
}

; Function Attrs: inlinehint nounwind uwtable
define internal i32 @Rtm_ObjGetFirst2(ptr noundef %0, ptr noundef %1) #5 {
  %3 = alloca ptr, align 8
  %4 = alloca ptr, align 8
  store ptr %0, ptr %3, align 8, !tbaa !3
  store ptr %1, ptr %4, align 8, !tbaa !8
  %5 = load ptr, ptr %3, align 8, !tbaa !3
  %6 = getelementptr inbounds nuw %struct.Rtm_Man_t_, ptr %5, i32 0, i32 4
  %7 = load ptr, ptr %6, align 8, !tbaa !39
  %8 = load ptr, ptr %4, align 8, !tbaa !8
  %9 = load i32, ptr %8, align 8
  %10 = lshr i32 %9, 12
  %11 = zext i32 %10 to i64
  %12 = trunc i64 %11 to i32
  %13 = sext i32 %12 to i64
  %14 = getelementptr inbounds i32, ptr %7, i64 %13
  %15 = call i32 @Rtm_InitGetTwo(ptr noundef %14, i32 noundef 0)
  ret i32 %15
}

; Function Attrs: inlinehint nounwind uwtable
define internal ptr @Aig_NotCond(ptr noundef %0, i32 noundef %1) #5 {
  %3 = alloca ptr, align 8
  %4 = alloca i32, align 4
  store ptr %0, ptr %3, align 8, !tbaa !65
  store i32 %1, ptr %4, align 4, !tbaa !21
  %5 = load ptr, ptr %3, align 8, !tbaa !65
  %6 = ptrtoint ptr %5 to i64
  %7 = load i32, ptr %4, align 4, !tbaa !21
  %8 = sext i32 %7 to i64
  %9 = xor i64 %6, %8
  %10 = inttoptr i64 %9 to ptr
  ret ptr %10
}

; Function Attrs: inlinehint nounwind uwtable
define internal ptr @Aig_ManCi(ptr noundef %0, i32 noundef %1) #5 {
  %3 = alloca ptr, align 8
  %4 = alloca i32, align 4
  store ptr %0, ptr %3, align 8, !tbaa !10
  store i32 %1, ptr %4, align 4, !tbaa !21
  %5 = load ptr, ptr %3, align 8, !tbaa !10
  %6 = getelementptr inbounds nuw %struct.Aig_Man_t_, ptr %5, i32 0, i32 2
  %7 = load ptr, ptr %6, align 8, !tbaa !67
  %8 = load i32, ptr %4, align 4, !tbaa !21
  %9 = call ptr @Vec_PtrEntry(ptr noundef %7, i32 noundef %8)
  ret ptr %9
}

; Function Attrs: inlinehint nounwind uwtable
define internal i32 @Rtm_ObjGetFirst(ptr noundef %0, ptr noundef %1) #5 {
  %3 = alloca ptr, align 8
  %4 = alloca ptr, align 8
  store ptr %0, ptr %3, align 8, !tbaa !3
  store ptr %1, ptr %4, align 8, !tbaa !8
  %5 = load ptr, ptr %4, align 8, !tbaa !8
  %6 = load i32, ptr %5, align 8
  %7 = and i32 %6, 4095
  %8 = zext i32 %7 to i64
  %9 = trunc i64 %8 to i32
  %10 = icmp sgt i32 %9, 10
  br i1 %10, label %11, label %15

11:                                               ; preds = %2
  %12 = load ptr, ptr %3, align 8, !tbaa !3
  %13 = load ptr, ptr %4, align 8, !tbaa !8
  %14 = call i32 @Rtm_ObjGetFirst2(ptr noundef %12, ptr noundef %13)
  br label %18

15:                                               ; preds = %2
  %16 = load ptr, ptr %4, align 8, !tbaa !8
  %17 = call i32 @Rtm_ObjGetFirst1(ptr noundef %16)
  br label %18

18:                                               ; preds = %15, %11
  %19 = phi i32 [ %14, %11 ], [ %17, %15 ]
  ret i32 %19
}

; Function Attrs: inlinehint nounwind uwtable
define internal ptr @Rtm_ObjFanin(ptr noundef %0, i32 noundef %1) #5 {
  %3 = alloca ptr, align 8
  %4 = alloca i32, align 4
  store ptr %0, ptr %3, align 8, !tbaa !40
  store i32 %1, ptr %4, align 4, !tbaa !21
  %5 = load ptr, ptr %3, align 8, !tbaa !40
  %6 = getelementptr inbounds nuw %struct.Rtm_Obj_t_, ptr %5, i32 0, i32 5
  %7 = load i32, ptr %4, align 4, !tbaa !21
  %8 = mul nsw i32 2, %7
  %9 = sext i32 %8 to i64
  %10 = getelementptr inbounds [0 x ptr], ptr %6, i64 0, i64 %9
  %11 = load ptr, ptr %10, align 8, !tbaa !45
  ret ptr %11
}

; Function Attrs: inlinehint nounwind uwtable
define internal ptr @Rtm_ObjEdge(ptr noundef %0, i32 noundef %1) #5 {
  %3 = alloca ptr, align 8
  %4 = alloca i32, align 4
  store ptr %0, ptr %3, align 8, !tbaa !40
  store i32 %1, ptr %4, align 4, !tbaa !21
  %5 = load ptr, ptr %3, align 8, !tbaa !40
  %6 = getelementptr inbounds nuw %struct.Rtm_Obj_t_, ptr %5, i32 0, i32 5
  %7 = getelementptr inbounds [0 x ptr], ptr %6, i64 0, i64 0
  %8 = load i32, ptr %4, align 4, !tbaa !21
  %9 = mul nsw i32 2, %8
  %10 = sext i32 %9 to i64
  %11 = getelementptr inbounds ptr, ptr %7, i64 %10
  %12 = getelementptr inbounds ptr, ptr %11, i64 1
  ret ptr %12
}

; Function Attrs: inlinehint nounwind uwtable
define internal ptr @Aig_ManConst1(ptr noundef %0) #5 {
  %2 = alloca ptr, align 8
  store ptr %0, ptr %2, align 8, !tbaa !10
  %3 = load ptr, ptr %2, align 8, !tbaa !10
  %4 = getelementptr inbounds nuw %struct.Aig_Man_t_, ptr %3, i32 0, i32 6
  %5 = load ptr, ptr %4, align 8, !tbaa !78
  ret ptr %5
}

; Function Attrs: nounwind uwtable
define ptr @Rtm_ManToAig_rec(ptr noundef %0, ptr noundef %1, ptr noundef %2, ptr noundef %3) #0 {
  %5 = alloca ptr, align 8
  %6 = alloca ptr, align 8
  %7 = alloca ptr, align 8
  %8 = alloca ptr, align 8
  %9 = alloca ptr, align 8
  %10 = alloca ptr, align 8
  %11 = alloca ptr, align 8
  %12 = alloca ptr, align 8
  %13 = alloca i32, align 4
  %14 = alloca i32, align 4
  %15 = alloca i32, align 4
  store ptr %0, ptr %6, align 8, !tbaa !10
  store ptr %1, ptr %7, align 8, !tbaa !3
  store ptr %2, ptr %8, align 8, !tbaa !40
  store ptr %3, ptr %9, align 8, !tbaa !82
  call void @llvm.lifetime.start.p0(i64 8, ptr %10) #11
  call void @llvm.lifetime.start.p0(i64 8, ptr %11) #11
  call void @llvm.lifetime.start.p0(i64 8, ptr %12) #11
  call void @llvm.lifetime.start.p0(i64 4, ptr %13) #11
  call void @llvm.lifetime.start.p0(i64 4, ptr %14) #11
  %16 = load ptr, ptr %8, align 8, !tbaa !40
  %17 = getelementptr inbounds nuw %struct.Rtm_Obj_t_, ptr %16, i32 0, i32 0
  %18 = load ptr, ptr %17, align 8, !tbaa !83
  %19 = icmp ne ptr %18, null
  br i1 %19, label %20, label %24

20:                                               ; preds = %4
  %21 = load ptr, ptr %8, align 8, !tbaa !40
  %22 = getelementptr inbounds nuw %struct.Rtm_Obj_t_, ptr %21, i32 0, i32 0
  %23 = load ptr, ptr %22, align 8, !tbaa !83
  store ptr %23, ptr %5, align 8
  store i32 1, ptr %15, align 4
  br label %120

24:                                               ; preds = %4
  %25 = load ptr, ptr %6, align 8, !tbaa !10
  %26 = call ptr @Aig_ManConst1(ptr noundef %25)
  store ptr %26, ptr %11, align 8, !tbaa !65
  store i32 0, ptr %13, align 4, !tbaa !21
  br label %27

27:                                               ; preds = %113, %24
  %28 = load i32, ptr %13, align 4, !tbaa !21
  %29 = load ptr, ptr %8, align 8, !tbaa !40
  %30 = getelementptr inbounds nuw %struct.Rtm_Obj_t_, ptr %29, i32 0, i32 1
  %31 = load i32, ptr %30, align 8
  %32 = lshr i32 %31, 7
  %33 = and i32 %32, 255
  %34 = zext i32 %33 to i64
  %35 = trunc i64 %34 to i32
  %36 = icmp slt i32 %28, %35
  br i1 %36, label %37, label %41

37:                                               ; preds = %27
  %38 = load ptr, ptr %8, align 8, !tbaa !40
  %39 = load i32, ptr %13, align 4, !tbaa !21
  %40 = call ptr @Rtm_ObjEdge(ptr noundef %38, i32 noundef %39)
  store ptr %40, ptr %10, align 8, !tbaa !8
  br label %41

41:                                               ; preds = %37, %27
  %42 = phi i1 [ false, %27 ], [ true, %37 ]
  br i1 %42, label %43, label %116

43:                                               ; preds = %41
  %44 = load ptr, ptr %10, align 8, !tbaa !8
  %45 = load i32, ptr %44, align 8
  %46 = and i32 %45, 4095
  %47 = zext i32 %46 to i64
  %48 = trunc i64 %47 to i32
  %49 = icmp eq i32 %48, 0
  br i1 %49, label %50, label %58

50:                                               ; preds = %43
  %51 = load ptr, ptr %6, align 8, !tbaa !10
  %52 = load ptr, ptr %7, align 8, !tbaa !3
  %53 = load ptr, ptr %8, align 8, !tbaa !40
  %54 = load i32, ptr %13, align 4, !tbaa !21
  %55 = call ptr @Rtm_ObjFanin(ptr noundef %53, i32 noundef %54)
  %56 = load ptr, ptr %9, align 8, !tbaa !82
  %57 = call ptr @Rtm_ManToAig_rec(ptr noundef %51, ptr noundef %52, ptr noundef %55, ptr noundef %56)
  store ptr %57, ptr %12, align 8, !tbaa !65
  br label %86

58:                                               ; preds = %43
  %59 = load ptr, ptr %7, align 8, !tbaa !3
  %60 = load ptr, ptr %10, align 8, !tbaa !8
  %61 = call i32 @Rtm_ObjGetFirst(ptr noundef %59, ptr noundef %60)
  store i32 %61, ptr %14, align 4, !tbaa !21
  %62 = load ptr, ptr %6, align 8, !tbaa !10
  %63 = load ptr, ptr %9, align 8, !tbaa !82
  %64 = load ptr, ptr %8, align 8, !tbaa !40
  %65 = getelementptr inbounds nuw %struct.Rtm_Obj_t_, ptr %64, i32 0, i32 2
  %66 = load i32, ptr %65, align 4, !tbaa !48
  %67 = mul nsw i32 2, %66
  %68 = load i32, ptr %13, align 4, !tbaa !21
  %69 = add nsw i32 %67, %68
  %70 = sext i32 %69 to i64
  %71 = getelementptr inbounds i32, ptr %63, i64 %70
  %72 = load i32, ptr %71, align 4, !tbaa !21
  %73 = load ptr, ptr %10, align 8, !tbaa !8
  %74 = load i32, ptr %73, align 8
  %75 = and i32 %74, 4095
  %76 = zext i32 %75 to i64
  %77 = trunc i64 %76 to i32
  %78 = add nsw i32 %72, %77
  %79 = sub nsw i32 %78, 1
  %80 = call ptr @Aig_ManCi(ptr noundef %62, i32 noundef %79)
  store ptr %80, ptr %12, align 8, !tbaa !65
  %81 = load ptr, ptr %12, align 8, !tbaa !65
  %82 = load i32, ptr %14, align 4, !tbaa !21
  %83 = icmp eq i32 %82, 2
  %84 = zext i1 %83 to i32
  %85 = call ptr @Aig_NotCond(ptr noundef %81, i32 noundef %84)
  store ptr %85, ptr %12, align 8, !tbaa !65
  br label %86

86:                                               ; preds = %58, %50
  %87 = load ptr, ptr %12, align 8, !tbaa !65
  %88 = load i32, ptr %13, align 4, !tbaa !21
  %89 = icmp ne i32 %88, 0
  br i1 %89, label %90, label %98

90:                                               ; preds = %86
  %91 = load ptr, ptr %8, align 8, !tbaa !40
  %92 = getelementptr inbounds nuw %struct.Rtm_Obj_t_, ptr %91, i32 0, i32 1
  %93 = load i32, ptr %92, align 8
  %94 = lshr i32 %93, 6
  %95 = and i32 %94, 1
  %96 = zext i32 %95 to i64
  %97 = trunc i64 %96 to i32
  br label %106

98:                                               ; preds = %86
  %99 = load ptr, ptr %8, align 8, !tbaa !40
  %100 = getelementptr inbounds nuw %struct.Rtm_Obj_t_, ptr %99, i32 0, i32 1
  %101 = load i32, ptr %100, align 8
  %102 = lshr i32 %101, 5
  %103 = and i32 %102, 1
  %104 = zext i32 %103 to i64
  %105 = trunc i64 %104 to i32
  br label %106

106:                                              ; preds = %98, %90
  %107 = phi i32 [ %97, %90 ], [ %105, %98 ]
  %108 = call ptr @Aig_NotCond(ptr noundef %87, i32 noundef %107)
  store ptr %108, ptr %12, align 8, !tbaa !65
  %109 = load ptr, ptr %6, align 8, !tbaa !10
  %110 = load ptr, ptr %11, align 8, !tbaa !65
  %111 = load ptr, ptr %12, align 8, !tbaa !65
  %112 = call ptr @Aig_And(ptr noundef %109, ptr noundef %110, ptr noundef %111)
  store ptr %112, ptr %11, align 8, !tbaa !65
  br label %113

113:                                              ; preds = %106
  %114 = load i32, ptr %13, align 4, !tbaa !21
  %115 = add nsw i32 %114, 1
  store i32 %115, ptr %13, align 4, !tbaa !21
  br label %27, !llvm.loop !84

116:                                              ; preds = %41
  %117 = load ptr, ptr %11, align 8, !tbaa !65
  %118 = load ptr, ptr %8, align 8, !tbaa !40
  %119 = getelementptr inbounds nuw %struct.Rtm_Obj_t_, ptr %118, i32 0, i32 0
  store ptr %117, ptr %119, align 8, !tbaa !83
  store ptr %117, ptr %5, align 8
  store i32 1, ptr %15, align 4
  br label %120

120:                                              ; preds = %116, %20
  call void @llvm.lifetime.end.p0(i64 4, ptr %14) #11
  call void @llvm.lifetime.end.p0(i64 4, ptr %13) #11
  call void @llvm.lifetime.end.p0(i64 8, ptr %12) #11
  call void @llvm.lifetime.end.p0(i64 8, ptr %11) #11
  call void @llvm.lifetime.end.p0(i64 8, ptr %10) #11
  %121 = load ptr, ptr %5, align 8
  ret ptr %121
}