; Function Attrs: nounwind uwtable
define ptr @Rtm_ManToAig_rec(ptr noundef %0, ptr noundef readonly captures(none) %1, ptr noundef captures(none) %2, ptr noundef readonly captures(none) %3) local_unnamed_addr #2 {
  %5 = load ptr, ptr %2, align 8, !tbaa !77
  %.not = icmp eq ptr %5, null
  br i1 %.not, label %6, label %65

6:                                                ; preds = %4
  %7 = getelementptr i8, ptr %0, i64 48
  %.val = load ptr, ptr %7, align 8, !tbaa !61
  %8 = getelementptr inbounds nuw i8, ptr %2, i64 8
  %9 = load i32, ptr %8, align 8
  %10 = and i32 %9, 32640
  %.not41 = icmp eq i32 %10, 0
  br i1 %.not41, label %.critedge, label %.lr.ph

.lr.ph:                                           ; preds = %6
  %11 = getelementptr inbounds nuw i8, ptr %2, i64 24
  %invariant.gep = getelementptr inbounds nuw i8, ptr %2, i64 32
  %12 = getelementptr i8, ptr %1, i64 32
  %13 = getelementptr inbounds nuw i8, ptr %2, i64 12
  %14 = getelementptr i8, ptr %0, i64 16
  br label %15

15:                                               ; preds = %.lr.ph, %52
  %indvars.iv = phi i64 [ 0, %.lr.ph ], [ %indvars.iv.next, %52 ]
  %.03439 = phi ptr [ %.val, %.lr.ph ], [ %59, %52 ]
  %16 = shl nuw nsw i64 %indvars.iv, 1
  %gep = getelementptr inbounds nuw ptr, ptr %invariant.gep, i64 %16
  %17 = load i32, ptr %gep, align 8
  %18 = and i32 %17, 4095
  %19 = icmp eq i32 %18, 0
  br i1 %19, label %20, label %25

20:                                               ; preds = %15
  %21 = getelementptr inbounds nuw [0 x ptr], ptr %11, i64 0, i64 %16
  %22 = load ptr, ptr %21, align 8, !tbaa !34
  %23 = tail call ptr @Rtm_ManToAig_rec(ptr noundef %0, ptr noundef %1, ptr noundef %22, ptr noundef %3)
  %24 = ptrtoint ptr %23 to i64
  br label %52

25:                                               ; preds = %15
  %26 = icmp samesign ugt i32 %18, 10
  br i1 %26, label %27, label %32

27:                                               ; preds = %25
  %.val.i = load ptr, ptr %12, align 8, !tbaa !33
  %28 = lshr i32 %17, 12
  %29 = zext nneg i32 %28 to i64
  %30 = getelementptr inbounds nuw i32, ptr %.val.i, i64 %29
  %31 = load i32, ptr %30, align 4, !tbaa !29
  br label %Rtm_ObjGetFirst.exit

32:                                               ; preds = %25
  %33 = lshr i32 %17, 12
  br label %Rtm_ObjGetFirst.exit

Rtm_ObjGetFirst.exit:                             ; preds = %27, %32
  %.in.i = phi i32 [ %31, %27 ], [ %33, %32 ]
  %34 = and i32 %.in.i, 3
  %35 = load i32, ptr %13, align 4, !tbaa !40
  %36 = shl nsw i32 %35, 1
  %37 = trunc nuw nsw i64 %indvars.iv to i32
  %38 = add nsw i32 %36, %37
  %39 = sext i32 %38 to i64
  %40 = getelementptr inbounds i32, ptr %3, i64 %39
  %41 = load i32, ptr %40, align 4, !tbaa !29
  %42 = add nsw i32 %41, %18
  %.val38 = load ptr, ptr %14, align 8, !tbaa !64
  %43 = getelementptr i8, ptr %.val38, i64 8
  %.val38.val = load ptr, ptr %43, align 8, !tbaa !25
  %44 = sext i32 %42 to i64
  %45 = getelementptr ptr, ptr %.val38.val, i64 %44
  %46 = getelementptr i8, ptr %45, i64 -8
  %47 = load ptr, ptr %46, align 8, !tbaa !34
  %48 = icmp eq i32 %34, 2
  %49 = ptrtoint ptr %47 to i64
  %50 = zext i1 %48 to i64
  %51 = xor i64 %49, %50
  br label %52

52:                                               ; preds = %Rtm_ObjGetFirst.exit, %20
  %.033 = phi i64 [ %24, %20 ], [ %51, %Rtm_ObjGetFirst.exit ]
  %.not36 = icmp eq i64 %indvars.iv, 0
  %53 = load i32, ptr %8, align 8
  %. = select i1 %.not36, i32 5, i32 6
  %54 = lshr i32 %53, %.
  %55 = and i32 %54, 1
  %56 = zext nneg i32 %55 to i64
  %57 = xor i64 %.033, %56
  %58 = inttoptr i64 %57 to ptr
  %59 = tail call ptr @Aig_And(ptr noundef %0, ptr noundef %.03439, ptr noundef %58) #23
  %indvars.iv.next = add nuw nsw i64 %indvars.iv, 1
  %60 = load i32, ptr %8, align 8
  %61 = lshr i32 %60, 7
  %62 = and i32 %61, 255
  %63 = zext nneg i32 %62 to i64
  %64 = icmp samesign ult i64 %indvars.iv.next, %63
  br i1 %64, label %15, label %.critedge, !llvm.loop !78

.critedge:                                        ; preds = %52, %6
  %.034.lcssa = phi ptr [ %.val, %6 ], [ %59, %52 ]
  store ptr %.034.lcssa, ptr %2, align 8, !tbaa !77
  br label %65

65:                                               ; preds = %4, %.critedge
  %.0 = phi ptr [ %.034.lcssa, %.critedge ], [ %5, %4 ]
  ret ptr %.0
}